; ModuleID = '63/1379.c'
source_filename = "63/1379.c"
target datalayout = "e-m:e-p270:32:32-p271:32:32-p272:64:64-i64:64-f80:128-n8:16:32:64-S128"
target triple = "x86_64-pc-linux-gnu"

@.str = private unnamed_addr constant [5 x i8] c"%d%d\00", align 1
@.str.1 = private unnamed_addr constant [3 x i8] c"%d\00", align 1
@.str.2 = private unnamed_addr constant [2 x i8] c" \00", align 1
@.str.3 = private unnamed_addr constant [2 x i8] c"\0A\00", align 1

; Function Attrs: noinline nounwind uwtable
define dso_local i32 @main() #0 {
  %1 = alloca i32, align 4
  %2 = alloca i32, align 4
  %3 = alloca i32, align 4
  %4 = alloca i32, align 4
  %5 = alloca i32, align 4
  %6 = alloca [100 x [100 x i32]], align 16
  %7 = alloca [100 x [100 x i32]], align 16
  %8 = alloca [100 x [100 x i32]], align 16
  %9 = alloca i32, align 4
  %10 = alloca i32, align 4
  %11 = alloca i32, align 4
  store i32 0, i32* %1, align 4
  %12 = bitcast [100 x [100 x i32]]* %6 to i8*
  call void @llvm.memset.p0i8.i64(i8* align 16 %12, i8 0, i64 40000, i1 false)
  %13 = bitcast [100 x [100 x i32]]* %7 to i8*
  call void @llvm.memset.p0i8.i64(i8* align 16 %13, i8 0, i64 40000, i1 false)
  %14 = bitcast [100 x [100 x i32]]* %8 to i8*
  call void @llvm.memset.p0i8.i64(i8* align 16 %14, i8 0, i64 40000, i1 false)
  %15 = call i32 (i8*, ...) @__isoc99_scanf(i8* getelementptr inbounds ([5 x i8], [5 x i8]* @.str, i64 0, i64 0), i32* %2, i32* %3)
  store i32 0, i32* %9, align 4
  br label %16

16:                                               ; preds = %37, %0
  %17 = load i32, i32* %9, align 4
  %18 = load i32, i32* %2, align 4
  %19 = icmp slt i32 %17, %18
  br i1 %19, label %20, label %40

20:                                               ; preds = %16
  store i32 0, i32* %10, align 4
  br label %21

21:                                               ; preds = %33, %20
  %22 = load i32, i32* %10, align 4
  %23 = load i32, i32* %3, align 4
  %24 = icmp slt i32 %22, %23
  br i1 %24, label %25, label %36

25:                                               ; preds = %21
  %26 = load i32, i32* %9, align 4
  %27 = sext i32 %26 to i64
  %28 = getelementptr inbounds [100 x [100 x i32]], [100 x [100 x i32]]* %6, i64 0, i64 %27
  %29 = load i32, i32* %10, align 4
  %30 = sext i32 %29 to i64
  %31 = getelementptr inbounds [100 x i32], [100 x i32]* %28, i64 0, i64 %30
  %32 = call i32 (i8*, ...) @__isoc99_scanf(i8* getelementptr inbounds ([3 x i8], [3 x i8]* @.str.1, i64 0, i64 0), i32* %31)
  br label %33

33:                                               ; preds = %25
  %34 = load i32, i32* %10, align 4
  %35 = add nsw i32 %34, 1
  store i32 %35, i32* %10, align 4
  br label %21

36:                                               ; preds = %21
  br label %37

37:                                               ; preds = %36
  %38 = load i32, i32* %9, align 4
  %39 = add nsw i32 %38, 1
  store i32 %39, i32* %9, align 4
  br label %16

40:                                               ; preds = %16
  %41 = call i32 (i8*, ...) @__isoc99_scanf(i8* getelementptr inbounds ([5 x i8], [5 x i8]* @.str, i64 0, i64 0), i32* %4, i32* %5)
  store i32 0, i32* %9, align 4
  br label %42

42:                                               ; preds = %63, %40
  %43 = load i32, i32* %9, align 4
  %44 = load i32, i32* %4, align 4
  %45 = icmp slt i32 %43, %44
  br i1 %45, label %46, label %66

46:                                               ; preds = %42
  store i32 0, i32* %10, align 4
  br label %47

47:                                               ; preds = %59, %46
  %48 = load i32, i32* %10, align 4
  %49 = load i32, i32* %5, align 4
  %50 = icmp slt i32 %48, %49
  br i1 %50, label %51, label %62

51:                                               ; preds = %47
  %52 = load i32, i32* %9, align 4
  %53 = sext i32 %52 to i64
  %54 = getelementptr inbounds [100 x [100 x i32]], [100 x [100 x i32]]* %7, i64 0, i64 %53
  %55 = load i32, i32* %10, align 4
  %56 = sext i32 %55 to i64
  %57 = getelementptr inbounds [100 x i32], [100 x i32]* %54, i64 0, i64 %56
  %58 = call i32 (i8*, ...) @__isoc99_scanf(i8* getelementptr inbounds ([3 x i8], [3 x i8]* @.str.1, i64 0, i64 0), i32* %57)
  br label %59

59:                                               ; preds = %51
  %60 = load i32, i32* %10, align 4
  %61 = add nsw i32 %60, 1
  store i32 %61, i32* %10, align 4
  br label %47

62:                                               ; preds = %47
  br label %63

63:                                               ; preds = %62
  %64 = load i32, i32* %9, align 4
  %65 = add nsw i32 %64, 1
  store i32 %65, i32* %9, align 4
  br label %42

66:                                               ; preds = %42
  store i32 0, i32* %9, align 4
  br label %67

67:                                               ; preds = %113, %66
  %68 = load i32, i32* %9, align 4
  %69 = load i32, i32* %2, align 4
  %70 = icmp slt i32 %68, %69
  br i1 %70, label %71, label %116

71:                                               ; preds = %67
  store i32 0, i32* %10, align 4
  br label %72

72:                                               ; preds = %109, %71
  %73 = load i32, i32* %10, align 4
  %74 = load i32, i32* %5, align 4
  %75 = icmp slt i32 %73, %74
  br i1 %75, label %76, label %112

76:                                               ; preds = %72
  store i32 0, i32* %11, align 4
  br label %77

77:                                               ; preds = %105, %76
  %78 = load i32, i32* %11, align 4
  %79 = load i32, i32* %3, align 4
  %80 = icmp slt i32 %78, %79
  br i1 %80, label %81, label %108

81:                                               ; preds = %77
  %82 = load i32, i32* %9, align 4
  %83 = sext i32 %82 to i64
  %84 = getelementptr inbounds [100 x [100 x i32]], [100 x [100 x i32]]* %6, i64 0, i64 %83
  %85 = load i32, i32* %11, align 4
  %86 = sext i32 %85 to i64
  %87 = getelementptr inbounds [100 x i32], [100 x i32]* %84, i64 0, i64 %86
  %88 = load i32, i32* %87, align 4
  %89 = load i32, i32* %11, align 4
  %90 = sext i32 %89 to i64
  %91 = getelementptr inbounds [100 x [100 x i32]], [100 x [100 x i32]]* %7, i64 0, i64 %90
  %92 = load i32, i32* %10, align 4
  %93 = sext i32 %92 to i64
  %94 = getelementptr inbounds [100 x i32], [100 x i32]* %91, i64 0, i64 %93
  %95 = load i32, i32* %94, align 4
  %96 = mul nsw i32 %88, %95
  %97 = load i32, i32* %9, align 4
  %98 = sext i32 %97 to i64
  %99 = getelementptr inbounds [100 x [100 x i32]], [100 x [100 x i32]]* %8, i64 0, i64 %98
  %100 = load i32, i32* %10, align 4
  %101 = sext i32 %100 to i64
  %102 = getelementptr inbounds [100 x i32], [100 x i32]* %99, i64 0, i64 %101
  %103 = load i32, i32* %102, align 4
  %104 = add nsw i32 %103, %96
  store i32 %104, i32* %102, align 4
  br label %105

105:                                              ; preds = %81
  %106 = load i32, i32* %11, align 4
  %107 = add nsw i32 %106, 1
  store i32 %107, i32* %11, align 4
  br label %77

108:                                              ; preds = %77
  br label %109

109:                                              ; preds = %108
  %110 = load i32, i32* %10, align 4
  %111 = add nsw i32 %110, 1
  store i32 %111, i32* %10, align 4
  br label %72

112:                                              ; preds = %72
  br label %113

113:                                              ; preds = %112
  %114 = load i32, i32* %9, align 4
  %115 = add nsw i32 %114, 1
  store i32 %115, i32* %9, align 4
  br label %67

116:                                              ; preds = %67
  store i32 0, i32* %9, align 4
  br label %117

117:                                              ; preds = %145, %116
  %118 = load i32, i32* %9, align 4
  %119 = load i32, i32* %2, align 4
  %120 = icmp slt i32 %118, %119
  br i1 %120, label %121, label %148

121:                                              ; preds = %117
  store i32 0, i32* %11, align 4
  store i32 0, i32* %10, align 4
  br label %122

122:                                              ; preds = %140, %121
  %123 = load i32, i32* %10, align 4
  %124 = load i32, i32* %5, align 4
  %125 = icmp slt i32 %123, %124
  br i1 %125, label %126, label %143

126:                                              ; preds = %122
  %127 = load i32, i32* %11, align 4
  %128 = icmp ne i32 %127, 0
  br i1 %128, label %129, label %131

129:                                              ; preds = %126
  %130 = call i32 (i8*, ...) @printf(i8* getelementptr inbounds ([2 x i8], [2 x i8]* @.str.2, i64 0, i64 0))
  br label %131

131:                                              ; preds = %129, %126
  %132 = load i32, i32* %9, align 4
  %133 = sext i32 %132 to i64
  %134 = getelementptr inbounds [100 x [100 x i32]], [100 x [100 x i32]]* %8, i64 0, i64 %133
  %135 = load i32, i32* %10, align 4
  %136 = sext i32 %135 to i64
  %137 = getelementptr inbounds [100 x i32], [100 x i32]* %134, i64 0, i64 %136
  %138 = load i32, i32* %137, align 4
  %139 = call i32 (i8*, ...) @printf(i8* getelementptr inbounds ([3 x i8], [3 x i8]* @.str.1, i64 0, i64 0), i32 %138)
  store i32 1, i32* %11, align 4
  br label %140

140:                                              ; preds = %131
  %141 = load i32, i32* %10, align 4
  %142 = add nsw i32 %141, 1
  store i32 %142, i32* %10, align 4
  br label %122

143:                                              ; preds = %122
  %144 = call i32 (i8*, ...) @printf(i8* getelementptr inbounds ([2 x i8], [2 x i8]* @.str.3, i64 0, i64 0))
  br label %145

145:                                              ; preds = %143
  %146 = load i32, i32* %9, align 4
  %147 = add nsw i32 %146, 1
  store i32 %147, i32* %9, align 4
  br label %117

148:                                              ; preds = %117
  ret i32 0
}

; Function Attrs: argmemonly nounwind willreturn
declare void @llvm.memset.p0i8.i64(i8* nocapture writeonly, i8, i64, i1 immarg) #1

declare dso_local i32 @__isoc99_scanf(i8*, ...) #2

declare dso_local i32 @printf(i8*, ...) #2


!llvm.module.flags = !{!0}
!llvm.ident = !{!1}

!0 = !{i32 1, !"wchar_size", i32 4}
!1 = !{!"clang version 10.0.0-4ubuntu1 "}
